target datalayout = "e-m:e-p270:32:32-p271:32:32-p272:64:64-i64:64-i128:128-f80:128-n8:16:32:64-S128"
target triple = "x86_64-unknown-linux-gnu"

%struct.sdshdr8 = type { i8, i8, i8, [0 x i8] }
%struct.sdshdr16 = type <{ i16, i16, i8, [0 x i8] }>
%struct.sdshdr32 = type <{ i32, i32, i8, [0 x i8] }>
%struct.sdshdr64 = type <{ i64, i64, i8, [0 x i8] }>

@.str.2 = private unnamed_addr constant [6 x i8] c"sds.c\00", align 1
@.str.6 = private unnamed_addr constant [80 x i8] c"(incr > 0 && oldlen+incr < 32) || (incr < 0 && oldlen >= (unsigned int)(-incr))\00", align 1
@.str.7 = private unnamed_addr constant [91 x i8] c"(incr >= 0 && sh->alloc-sh->len >= incr) || (incr < 0 && sh->len >= (unsigned int)(-incr))\00", align 1
@.str.8 = private unnamed_addr constant [105 x i8] c"(incr >= 0 && sh->alloc-sh->len >= (unsigned int)incr) || (incr < 0 && sh->len >= (unsigned int)(-incr))\00", align 1
@.str.9 = private unnamed_addr constant [97 x i8] c"(incr >= 0 && sh->alloc-sh->len >= (uint64_t)incr) || (incr < 0 && sh->len >= (uint64_t)(-incr))\00", align 1

; Function Attrs: nounwind uwtable
define dso_local void @sdsIncrLen(ptr noundef %s, i64 noundef %incr) #0 {
entry:
  %s.addr = alloca ptr, align 8
  %incr.addr = alloca i64, align 8
  %flags = alloca i8, align 1
  %len = alloca i64, align 8
  %fp = alloca ptr, align 8
  %oldlen = alloca i8, align 1
  %sh = alloca ptr, align 8
  %sh59 = alloca ptr, align 8
  %sh99 = alloca ptr, align 8
  %sh136 = alloca ptr, align 8
  store ptr %s, ptr %s.addr, align 8
  store i64 %incr, ptr %incr.addr, align 8
  %0 = load ptr, ptr %s.addr, align 8
  %arrayidx = getelementptr inbounds i8, ptr %0, i64 -1
  %1 = load i8, ptr %arrayidx, align 1
  store i8 %1, ptr %flags, align 1
  %2 = load i8, ptr %flags, align 1
  %conv = zext i8 %2 to i32
  %and = and i32 %conv, 7
  switch i32 %and, label %sw.default [
    i32 0, label %sw.bb
    i32 1, label %sw.bb20
    i32 2, label %sw.bb58
    i32 3, label %sw.bb98
    i32 4, label %sw.bb135
  ]

sw.bb:                                            ; preds = %entry
  %3 = load ptr, ptr %s.addr, align 8
  %add.ptr = getelementptr inbounds i8, ptr %3, i64 -1
  store ptr %add.ptr, ptr %fp, align 8
  %4 = load i8, ptr %flags, align 1
  %conv1 = zext i8 %4 to i32
  %shr = ashr i32 %conv1, 3
  %conv2 = trunc i32 %shr to i8
  store i8 %conv2, ptr %oldlen, align 1
  %5 = load i64, ptr %incr.addr, align 8
  %cmp = icmp sgt i64 %5, 0
  br i1 %cmp, label %land.lhs.true, label %lor.rhs

land.lhs.true:                                    ; preds = %sw.bb
  %6 = load i8, ptr %oldlen, align 1
  %conv4 = zext i8 %6 to i64
  %7 = load i64, ptr %incr.addr, align 8
  %add = add nsw i64 %conv4, %7
  %cmp5 = icmp slt i64 %add, 32
  br i1 %cmp5, label %lor.end, label %lor.rhs

lor.rhs:                                          ; preds = %land.lhs.true, %sw.bb
  %8 = load i64, ptr %incr.addr, align 8
  %cmp7 = icmp slt i64 %8, 0
  br i1 %cmp7, label %land.rhs, label %land.end

land.rhs:                                         ; preds = %lor.rhs
  %9 = load i8, ptr %oldlen, align 1
  %conv9 = zext i8 %9 to i32
  %10 = load i64, ptr %incr.addr, align 8
  %sub = sub nsw i64 0, %10
  %conv10 = trunc i64 %sub to i32
  %cmp11 = icmp uge i32 %conv9, %conv10
  br label %land.end

land.end:                                         ; preds = %land.rhs, %lor.rhs
  %11 = phi i1 [ false, %lor.rhs ], [ %cmp11, %land.rhs ]
  br label %lor.end

lor.end:                                          ; preds = %land.end, %land.lhs.true
  %12 = phi i1 [ true, %land.lhs.true ], [ %11, %land.end ]
  %lnot = xor i1 %12, true
  %lnot13 = xor i1 %lnot, true
  %lnot.ext = zext i1 %lnot13 to i32
  %conv14 = sext i32 %lnot.ext to i64
  %tobool = icmp ne i64 %conv14, 0
  br i1 %tobool, label %cond.true, label %cond.false

cond.true:                                        ; preds = %lor.end
  br label %cond.end

cond.false:                                       ; preds = %lor.end
  call void @_serverAssert(ptr noundef @.str.6, ptr noundef @.str.2, i32 noundef 427)
  call void @abort() #11
  unreachable

13:                                               ; No predecessors!
  br label %cond.end

cond.end:                                         ; preds = %13, %cond.true
  %14 = load i8, ptr %oldlen, align 1
  %conv15 = zext i8 %14 to i64
  %15 = load i64, ptr %incr.addr, align 8
  %add16 = add nsw i64 %conv15, %15
  %shl = shl i64 %add16, 3
  %or = or i64 0, %shl
  %conv17 = trunc i64 %or to i8
  %16 = load ptr, ptr %fp, align 8
  store i8 %conv17, ptr %16, align 1
  %17 = load i8, ptr %oldlen, align 1
  %conv18 = zext i8 %17 to i64
  %18 = load i64, ptr %incr.addr, align 8
  %add19 = add nsw i64 %conv18, %18
  store i64 %add19, ptr %len, align 8
  br label %sw.epilog

sw.bb20:                                          ; preds = %entry
  %19 = load ptr, ptr %s.addr, align 8
  %add.ptr21 = getelementptr inbounds i8, ptr %19, i64 -3
  store ptr %add.ptr21, ptr %sh, align 8
  %20 = load i64, ptr %incr.addr, align 8
  %cmp22 = icmp sge i64 %20, 0
  br i1 %cmp22, label %land.lhs.true24, label %lor.rhs32

land.lhs.true24:                                  ; preds = %sw.bb20
  %21 = load ptr, ptr %sh, align 8
  %alloc = getelementptr inbounds %struct.sdshdr8, ptr %21, i32 0, i32 1
  %22 = load i8, ptr %alloc, align 1
  %conv25 = zext i8 %22 to i32
  %23 = load ptr, ptr %sh, align 8
  %len26 = getelementptr inbounds %struct.sdshdr8, ptr %23, i32 0, i32 0
  %24 = load i8, ptr %len26, align 1
  %conv27 = zext i8 %24 to i32
  %sub28 = sub nsw i32 %conv25, %conv27
  %conv29 = sext i32 %sub28 to i64
  %25 = load i64, ptr %incr.addr, align 8
  %cmp30 = icmp sge i64 %conv29, %25
  br i1 %cmp30, label %lor.end43, label %lor.rhs32

lor.rhs32:                                        ; preds = %land.lhs.true24, %sw.bb20
  %26 = load i64, ptr %incr.addr, align 8
  %cmp33 = icmp slt i64 %26, 0
  br i1 %cmp33, label %land.rhs35, label %land.end42

land.rhs35:                                       ; preds = %lor.rhs32
  %27 = load ptr, ptr %sh, align 8
  %len36 = getelementptr inbounds %struct.sdshdr8, ptr %27, i32 0, i32 0
  %28 = load i8, ptr %len36, align 1
  %conv37 = zext i8 %28 to i32
  %29 = load i64, ptr %incr.addr, align 8
  %sub38 = sub nsw i64 0, %29
  %conv39 = trunc i64 %sub38 to i32
  %cmp40 = icmp uge i32 %conv37, %conv39
  br label %land.end42

land.end42:                                       ; preds = %land.rhs35, %lor.rhs32
  %30 = phi i1 [ false, %lor.rhs32 ], [ %cmp40, %land.rhs35 ]
  br label %lor.end43

lor.end43:                                        ; preds = %land.end42, %land.lhs.true24
  %31 = phi i1 [ true, %land.lhs.true24 ], [ %30, %land.end42 ]
  %lnot44 = xor i1 %31, true
  %lnot46 = xor i1 %lnot44, true
  %lnot.ext47 = zext i1 %lnot46 to i32
  %conv48 = sext i32 %lnot.ext47 to i64
  %tobool49 = icmp ne i64 %conv48, 0
  br i1 %tobool49, label %cond.true50, label %cond.false51

cond.true50:                                      ; preds = %lor.end43
  br label %cond.end52

cond.false51:                                     ; preds = %lor.end43
  call void @_serverAssert(ptr noundef @.str.7, ptr noundef @.str.2, i32 noundef 434)
  call void @abort() #11
  unreachable

32:                                               ; No predecessors!
  br label %cond.end52

cond.end52:                                       ; preds = %32, %cond.true50
  %33 = load i64, ptr %incr.addr, align 8
  %34 = load ptr, ptr %sh, align 8
  %len53 = getelementptr inbounds %struct.sdshdr8, ptr %34, i32 0, i32 0
  %35 = load i8, ptr %len53, align 1
  %conv54 = zext i8 %35 to i64
  %add55 = add nsw i64 %conv54, %33
  %conv56 = trunc i64 %add55 to i8
  store i8 %conv56, ptr %len53, align 1
  %conv57 = zext i8 %conv56 to i64
  store i64 %conv57, ptr %len, align 8
  br label %sw.epilog

sw.bb58:                                          ; preds = %entry
  %36 = load ptr, ptr %s.addr, align 8
  %add.ptr60 = getelementptr inbounds i8, ptr %36, i64 -5
  store ptr %add.ptr60, ptr %sh59, align 8
  %37 = load i64, ptr %incr.addr, align 8
  %cmp61 = icmp sge i64 %37, 0
  br i1 %cmp61, label %land.lhs.true63, label %lor.rhs72

land.lhs.true63:                                  ; preds = %sw.bb58
  %38 = load ptr, ptr %sh59, align 8
  %alloc64 = getelementptr inbounds %struct.sdshdr16, ptr %38, i32 0, i32 1
  %39 = load i16, ptr %alloc64, align 1
  %conv65 = zext i16 %39 to i32
  %40 = load ptr, ptr %sh59, align 8
  %len66 = getelementptr inbounds %struct.sdshdr16, ptr %40, i32 0, i32 0
  %41 = load i16, ptr %len66, align 1
  %conv67 = zext i16 %41 to i32
  %sub68 = sub nsw i32 %conv65, %conv67
  %conv69 = sext i32 %sub68 to i64
  %42 = load i64, ptr %incr.addr, align 8
  %cmp70 = icmp sge i64 %conv69, %42
  br i1 %cmp70, label %lor.end83, label %lor.rhs72

lor.rhs72:                                        ; preds = %land.lhs.true63, %sw.bb58
  %43 = load i64, ptr %incr.addr, align 8
  %cmp73 = icmp slt i64 %43, 0
  br i1 %cmp73, label %land.rhs75, label %land.end82

land.rhs75:                                       ; preds = %lor.rhs72
  %44 = load ptr, ptr %sh59, align 8
  %len76 = getelementptr inbounds %struct.sdshdr16, ptr %44, i32 0, i32 0
  %45 = load i16, ptr %len76, align 1
  %conv77 = zext i16 %45 to i32
  %46 = load i64, ptr %incr.addr, align 8
  %sub78 = sub nsw i64 0, %46
  %conv79 = trunc i64 %sub78 to i32
  %cmp80 = icmp uge i32 %conv77, %conv79
  br label %land.end82

land.end82:                                       ; preds = %land.rhs75, %lor.rhs72
  %47 = phi i1 [ false, %lor.rhs72 ], [ %cmp80, %land.rhs75 ]
  br label %lor.end83

lor.end83:                                        ; preds = %land.end82, %land.lhs.true63
  %48 = phi i1 [ true, %land.lhs.true63 ], [ %47, %land.end82 ]
  %lnot84 = xor i1 %48, true
  %lnot86 = xor i1 %lnot84, true
  %lnot.ext87 = zext i1 %lnot86 to i32
  %conv88 = sext i32 %lnot.ext87 to i64
  %tobool89 = icmp ne i64 %conv88, 0
  br i1 %tobool89, label %cond.true90, label %cond.false91

cond.true90:                                      ; preds = %lor.end83
  br label %cond.end92

cond.false91:                                     ; preds = %lor.end83
  call void @_serverAssert(ptr noundef @.str.7, ptr noundef @.str.2, i32 noundef 440)
  call void @abort() #11
  unreachable

49:                                               ; No predecessors!
  br label %cond.end92

cond.end92:                                       ; preds = %49, %cond.true90
  %50 = load i64, ptr %incr.addr, align 8
  %51 = load ptr, ptr %sh59, align 8
  %len93 = getelementptr inbounds %struct.sdshdr16, ptr %51, i32 0, i32 0
  %52 = load i16, ptr %len93, align 1
  %conv94 = zext i16 %52 to i64
  %add95 = add nsw i64 %conv94, %50
  %conv96 = trunc i64 %add95 to i16
  store i16 %conv96, ptr %len93, align 1
  %conv97 = zext i16 %conv96 to i64
  store i64 %conv97, ptr %len, align 8
  br label %sw.epilog

sw.bb98:                                          ; preds = %entry
  %53 = load ptr, ptr %s.addr, align 8
  %add.ptr100 = getelementptr inbounds i8, ptr %53, i64 -9
  store ptr %add.ptr100, ptr %sh99, align 8
  %54 = load i64, ptr %incr.addr, align 8
  %cmp101 = icmp sge i64 %54, 0
  br i1 %cmp101, label %land.lhs.true103, label %lor.rhs110

land.lhs.true103:                                 ; preds = %sw.bb98
  %55 = load ptr, ptr %sh99, align 8
  %alloc104 = getelementptr inbounds %struct.sdshdr32, ptr %55, i32 0, i32 1
  %56 = load i32, ptr %alloc104, align 1
  %57 = load ptr, ptr %sh99, align 8
  %len105 = getelementptr inbounds %struct.sdshdr32, ptr %57, i32 0, i32 0
  %58 = load i32, ptr %len105, align 1
  %sub106 = sub i32 %56, %58
  %59 = load i64, ptr %incr.addr, align 8
  %conv107 = trunc i64 %59 to i32
  %cmp108 = icmp uge i32 %sub106, %conv107
  br i1 %cmp108, label %lor.end120, label %lor.rhs110

lor.rhs110:                                       ; preds = %land.lhs.true103, %sw.bb98
  %60 = load i64, ptr %incr.addr, align 8
  %cmp111 = icmp slt i64 %60, 0
  br i1 %cmp111, label %land.rhs113, label %land.end119

land.rhs113:                                      ; preds = %lor.rhs110
  %61 = load ptr, ptr %sh99, align 8
  %len114 = getelementptr inbounds %struct.sdshdr32, ptr %61, i32 0, i32 0
  %62 = load i32, ptr %len114, align 1
  %63 = load i64, ptr %incr.addr, align 8
  %sub115 = sub nsw i64 0, %63
  %conv116 = trunc i64 %sub115 to i32
  %cmp117 = icmp uge i32 %62, %conv116
  br label %land.end119

land.end119:                                      ; preds = %land.rhs113, %lor.rhs110
  %64 = phi i1 [ false, %lor.rhs110 ], [ %cmp117, %land.rhs113 ]
  br label %lor.end120

lor.end120:                                       ; preds = %land.end119, %land.lhs.true103
  %65 = phi i1 [ true, %land.lhs.true103 ], [ %64, %land.end119 ]
  %lnot121 = xor i1 %65, true
  %lnot123 = xor i1 %lnot121, true
  %lnot.ext124 = zext i1 %lnot123 to i32
  %conv125 = sext i32 %lnot.ext124 to i64
  %tobool126 = icmp ne i64 %conv125, 0
  br i1 %tobool126, label %cond.true127, label %cond.false128

cond.true127:                                     ; preds = %lor.end120
  br label %cond.end129

cond.false128:                                    ; preds = %lor.end120
  call void @_serverAssert(ptr noundef @.str.8, ptr noundef @.str.2, i32 noundef 446)
  call void @abort() #11
  unreachable

66:                                               ; No predecessors!
  br label %cond.end129

cond.end129:                                      ; preds = %66, %cond.true127
  %67 = load i64, ptr %incr.addr, align 8
  %68 = load ptr, ptr %sh99, align 8
  %len130 = getelementptr inbounds %struct.sdshdr32, ptr %68, i32 0, i32 0
  %69 = load i32, ptr %len130, align 1
  %conv131 = zext i32 %69 to i64
  %add132 = add nsw i64 %conv131, %67
  %conv133 = trunc i64 %add132 to i32
  store i32 %conv133, ptr %len130, align 1
  %conv134 = zext i32 %conv133 to i64
  store i64 %conv134, ptr %len, align 8
  br label %sw.epilog

sw.bb135:                                         ; preds = %entry
  %70 = load ptr, ptr %s.addr, align 8
  %add.ptr137 = getelementptr inbounds i8, ptr %70, i64 -17
  store ptr %add.ptr137, ptr %sh136, align 8
  %71 = load i64, ptr %incr.addr, align 8
  %cmp138 = icmp sge i64 %71, 0
  br i1 %cmp138, label %land.lhs.true140, label %lor.rhs146

land.lhs.true140:                                 ; preds = %sw.bb135
  %72 = load ptr, ptr %sh136, align 8
  %alloc141 = getelementptr inbounds %struct.sdshdr64, ptr %72, i32 0, i32 1
  %73 = load i64, ptr %alloc141, align 1
  %74 = load ptr, ptr %sh136, align 8
  %len142 = getelementptr inbounds %struct.sdshdr64, ptr %74, i32 0, i32 0
  %75 = load i64, ptr %len142, align 1
  %sub143 = sub i64 %73, %75
  %76 = load i64, ptr %incr.addr, align 8
  %cmp144 = icmp uge i64 %sub143, %76
  br i1 %cmp144, label %lor.end155, label %lor.rhs146

lor.rhs146:                                       ; preds = %land.lhs.true140, %sw.bb135
  %77 = load i64, ptr %incr.addr, align 8
  %cmp147 = icmp slt i64 %77, 0
  br i1 %cmp147, label %land.rhs149, label %land.end154

land.rhs149:                                      ; preds = %lor.rhs146
  %78 = load ptr, ptr %sh136, align 8
  %len150 = getelementptr inbounds %struct.sdshdr64, ptr %78, i32 0, i32 0
  %79 = load i64, ptr %len150, align 1
  %80 = load i64, ptr %incr.addr, align 8
  %sub151 = sub nsw i64 0, %80
  %cmp152 = icmp uge i64 %79, %sub151
  br label %land.end154

land.end154:                                      ; preds = %land.rhs149, %lor.rhs146
  %81 = phi i1 [ false, %lor.rhs146 ], [ %cmp152, %land.rhs149 ]
  br label %lor.end155

lor.end155:                                       ; preds = %land.end154, %land.lhs.true140
  %82 = phi i1 [ true, %land.lhs.true140 ], [ %81, %land.end154 ]
  %lnot156 = xor i1 %82, true
  %lnot158 = xor i1 %lnot156, true
  %lnot.ext159 = zext i1 %lnot158 to i32
  %conv160 = sext i32 %lnot.ext159 to i64
  %tobool161 = icmp ne i64 %conv160, 0
  br i1 %tobool161, label %cond.true162, label %cond.false163

cond.true162:                                     ; preds = %lor.end155
  br label %cond.end164

cond.false163:                                    ; preds = %lor.end155
  call void @_serverAssert(ptr noundef @.str.9, ptr noundef @.str.2, i32 noundef 452)
  call void @abort() #11
  unreachable

83:                                               ; No predecessors!
  br label %cond.end164

cond.end164:                                      ; preds = %83, %cond.true162
  %84 = load i64, ptr %incr.addr, align 8
  %85 = load ptr, ptr %sh136, align 8
  %len165 = getelementptr inbounds %struct.sdshdr64, ptr %85, i32 0, i32 0
  %86 = load i64, ptr %len165, align 1
  %add166 = add i64 %86, %84
  store i64 %add166, ptr %len165, align 1
  store i64 %add166, ptr %len, align 8
  br label %sw.epilog

sw.default:                                       ; preds = %entry
  store i64 0, ptr %len, align 8
  br label %sw.epilog

sw.epilog:                                        ; preds = %sw.default, %cond.end164, %cond.end129, %cond.end92, %cond.end52, %cond.end
  %87 = load ptr, ptr %s.addr, align 8
  %88 = load i64, ptr %len, align 8
  %arrayidx167 = getelementptr inbounds i8, ptr %87, i64 %88
  store i8 0, ptr %arrayidx167, align 1
  ret void
}