; Function Attrs: nounwind uwtable
define dso_local void @sdsIncrLen(ptr nocapture noundef %s, i64 noundef %incr) local_unnamed_addr #0 {
entry:
  %arrayidx = getelementptr inbounds i8, ptr %s, i64 -1
  %0 = load i8, ptr %arrayidx, align 1
  %1 = and i8 %0, 7
  switch i8 %1, label %sw.epilog [
    i8 0, label %sw.bb
    i8 1, label %sw.bb20
    i8 2, label %sw.bb58
    i8 3, label %sw.bb98
    i8 4, label %sw.bb135
  ]

sw.bb:                                            ; preds = %entry
  %shr = lshr i8 %0, 3
  %cmp = icmp sgt i64 %incr, 0
  br i1 %cmp, label %land.lhs.true, label %lor.rhs

land.lhs.true:                                    ; preds = %sw.bb
  %conv4 = zext nneg i8 %shr to i64
  %add = add nuw nsw i64 %conv4, %incr
  %cmp5 = icmp ult i64 %add, 32
  br i1 %cmp5, label %cond.end, label %cond.false

lor.rhs:                                          ; preds = %sw.bb
  %cmp7 = icmp ne i64 %incr, 0
  %conv9 = zext nneg i8 %shr to i32
  %2 = trunc i64 %incr to i32
  %conv10 = sub i32 0, %2
  %cmp11 = icmp uge i32 %conv9, %conv10
  %3 = select i1 %cmp7, i1 %cmp11, i1 false
  br i1 %3, label %lor.rhs.cond.end_crit_edge, label %cond.false

lor.rhs.cond.end_crit_edge:                       ; preds = %lor.rhs
  %.pre = zext nneg i8 %shr to i64
  %.pre56 = add nsw i64 %.pre, %incr
  br label %cond.end

cond.false:                                       ; preds = %land.lhs.true, %lor.rhs
  tail call void @_serverAssert(ptr noundef nonnull @.str.6, ptr noundef nonnull @.str.2, i32 noundef 427) #25
  tail call void @abort() #26
  unreachable

cond.end:                                         ; preds = %lor.rhs.cond.end_crit_edge, %land.lhs.true
  %add16.pre-phi = phi i64 [ %.pre56, %lor.rhs.cond.end_crit_edge ], [ %add, %land.lhs.true ]
  %add16.tr = trunc i64 %add16.pre-phi to i8
  %conv17 = shl i8 %add16.tr, 3
  store i8 %conv17, ptr %arrayidx, align 1
  br label %sw.epilog

sw.bb20:                                          ; preds = %entry
  %add.ptr21 = getelementptr inbounds i8, ptr %s, i64 -3
  %cmp22 = icmp sgt i64 %incr, -1
  br i1 %cmp22, label %land.lhs.true24, label %land.rhs35

land.lhs.true24:                                  ; preds = %sw.bb20
  %alloc = getelementptr inbounds i8, ptr %s, i64 -2
  %4 = load i8, ptr %alloc, align 1
  %conv25 = zext i8 %4 to i64
  %5 = load i8, ptr %add.ptr21, align 1
  %conv27 = zext i8 %5 to i64
  %sub28 = sub nsw i64 %conv25, %conv27
  %cmp30.not = icmp slt i64 %sub28, %incr
  br i1 %cmp30.not, label %cond.false51, label %cond.end52

land.rhs35:                                       ; preds = %sw.bb20
  %6 = load i8, ptr %add.ptr21, align 1
  %conv37 = zext i8 %6 to i32
  %7 = trunc i64 %incr to i32
  %conv39 = sub i32 0, %7
  %cmp40.not = icmp ult i32 %conv37, %conv39
  br i1 %cmp40.not, label %cond.false51, label %cond.end52

cond.false51:                                     ; preds = %land.lhs.true24, %land.rhs35
  tail call void @_serverAssert(ptr noundef nonnull @.str.7, ptr noundef nonnull @.str.2, i32 noundef 434) #25
  tail call void @abort() #26
  unreachable

cond.end52:                                       ; preds = %land.lhs.true24, %land.rhs35
  %8 = phi i8 [ %5, %land.lhs.true24 ], [ %6, %land.rhs35 ]
  %9 = trunc i64 %incr to i8
  %conv56 = add i8 %8, %9
  store i8 %conv56, ptr %add.ptr21, align 1
  %conv57 = zext i8 %conv56 to i64
  br label %sw.epilog

sw.bb58:                                          ; preds = %entry
  %add.ptr60 = getelementptr inbounds i8, ptr %s, i64 -5
  %cmp61 = icmp sgt i64 %incr, -1
  br i1 %cmp61, label %land.lhs.true63, label %land.rhs75

land.lhs.true63:                                  ; preds = %sw.bb58
  %alloc64 = getelementptr inbounds i8, ptr %s, i64 -3
  %10 = load i16, ptr %alloc64, align 1
  %conv65 = zext i16 %10 to i64
  %11 = load i16, ptr %add.ptr60, align 1
  %conv67 = zext i16 %11 to i64
  %sub68 = sub nsw i64 %conv65, %conv67
  %cmp70.not = icmp slt i64 %sub68, %incr
  br i1 %cmp70.not, label %cond.false91, label %cond.end92

land.rhs75:                                       ; preds = %sw.bb58
  %12 = load i16, ptr %add.ptr60, align 1
  %conv77 = zext i16 %12 to i32
  %13 = trunc i64 %incr to i32
  %conv79 = sub i32 0, %13
  %cmp80.not = icmp ult i32 %conv77, %conv79
  br i1 %cmp80.not, label %cond.false91, label %cond.end92

cond.false91:                                     ; preds = %land.lhs.true63, %land.rhs75
  tail call void @_serverAssert(ptr noundef nonnull @.str.7, ptr noundef nonnull @.str.2, i32 noundef 440) #25
  tail call void @abort() #26
  unreachable

cond.end92:                                       ; preds = %land.lhs.true63, %land.rhs75
  %14 = phi i16 [ %11, %land.lhs.true63 ], [ %12, %land.rhs75 ]
  %15 = trunc i64 %incr to i16
  %conv96 = add i16 %14, %15
  store i16 %conv96, ptr %add.ptr60, align 1
  %conv97 = zext i16 %conv96 to i64
  br label %sw.epilog

sw.bb98:                                          ; preds = %entry
  %add.ptr100 = getelementptr inbounds i8, ptr %s, i64 -9
  %cmp101 = icmp sgt i64 %incr, -1
  br i1 %cmp101, label %land.lhs.true103, label %land.rhs113

land.lhs.true103:                                 ; preds = %sw.bb98
  %alloc104 = getelementptr inbounds i8, ptr %s, i64 -5
  %16 = load i32, ptr %alloc104, align 1
  %17 = load i32, ptr %add.ptr100, align 1
  %sub106 = sub i32 %16, %17
  %conv107 = trunc i64 %incr to i32
  %cmp108.not = icmp ult i32 %sub106, %conv107
  br i1 %cmp108.not, label %cond.false128, label %cond.end129

land.rhs113:                                      ; preds = %sw.bb98
  %18 = load i32, ptr %add.ptr100, align 1
  %19 = trunc i64 %incr to i32
  %conv116 = sub i32 0, %19
  %cmp117.not = icmp ult i32 %18, %conv116
  br i1 %cmp117.not, label %cond.false128, label %cond.end129

cond.false128:                                    ; preds = %land.lhs.true103, %land.rhs113
  tail call void @_serverAssert(ptr noundef nonnull @.str.8, ptr noundef nonnull @.str.2, i32 noundef 446) #25
  tail call void @abort() #26
  unreachable

cond.end129:                                      ; preds = %land.lhs.true103, %land.rhs113
  %.pre-phi = phi i32 [ %conv107, %land.lhs.true103 ], [ %19, %land.rhs113 ]
  %20 = phi i32 [ %17, %land.lhs.true103 ], [ %18, %land.rhs113 ]
  %conv133 = add i32 %20, %.pre-phi
  store i32 %conv133, ptr %add.ptr100, align 1
  %conv134 = zext i32 %conv133 to i64
  br label %sw.epilog

sw.bb135:                                         ; preds = %entry
  %add.ptr137 = getelementptr inbounds i8, ptr %s, i64 -17
  %cmp138 = icmp sgt i64 %incr, -1
  br i1 %cmp138, label %land.lhs.true140, label %land.rhs149

land.lhs.true140:                                 ; preds = %sw.bb135
  %alloc141 = getelementptr inbounds i8, ptr %s, i64 -9
  %21 = load i64, ptr %alloc141, align 1
  %22 = load i64, ptr %add.ptr137, align 1
  %sub143 = sub i64 %21, %22
  %cmp144.not = icmp ult i64 %sub143, %incr
  br i1 %cmp144.not, label %cond.false163, label %cond.end164

land.rhs149:                                      ; preds = %sw.bb135
  %23 = load i64, ptr %add.ptr137, align 1
  %sub151 = sub nsw i64 0, %incr
  %cmp152.not = icmp ult i64 %23, %sub151
  br i1 %cmp152.not, label %cond.false163, label %cond.end164

cond.false163:                                    ; preds = %land.lhs.true140, %land.rhs149
  tail call void @_serverAssert(ptr noundef nonnull @.str.9, ptr noundef nonnull @.str.2, i32 noundef 452) #25
  tail call void @abort() #26
  unreachable

cond.end164:                                      ; preds = %land.lhs.true140, %land.rhs149
  %24 = phi i64 [ %22, %land.lhs.true140 ], [ %23, %land.rhs149 ]
  %add166 = add i64 %24, %incr
  store i64 %add166, ptr %add.ptr137, align 1
  br label %sw.epilog

sw.epilog:                                        ; preds = %entry, %cond.end164, %cond.end129, %cond.end92, %cond.end52, %cond.end
  %len.0 = phi i64 [ %add166, %cond.end164 ], [ %conv134, %cond.end129 ], [ %conv97, %cond.end92 ], [ %conv57, %cond.end52 ], [ %add16.pre-phi, %cond.end ], [ 0, %entry ]
  %arrayidx167 = getelementptr inbounds i8, ptr %s, i64 %len.0
  store i8 0, ptr %arrayidx167, align 1
  ret void
}